target datalayout = "e-m:e-p270:32:32-p271:32:32-p272:64:64-i64:64-i128:128-f80:128-n8:16:32:64-S128"
target triple = "x86_64-pc-linux-gnu"

%struct.sockaddr_storage = type { i16, [118 x i8], i64 }
%struct.stat = type { i64, i64, i64, i32, i32, i32, i32, i64, i64, i64, i64, %struct.timespec, %struct.timespec, %struct.timespec, [3 x i64] }
%struct.timespec = type { i64, i64 }
%union.__SOCKADDR_ARG = type { ptr }

; Function Attrs: nounwind uwtable
define internal i32 @uv__fstat(i32 noundef %0, ptr noundef %1) #0 {
  %3 = alloca i32, align 4
  %4 = alloca ptr, align 8
  %5 = alloca i32, align 4
  store i32 %0, ptr %3, align 4
  store ptr %1, ptr %4, align 8
  call void @llvm.lifetime.start.p0(i64 4, ptr %5) #6
  %6 = load i32, ptr %3, align 4
  %7 = load ptr, ptr %4, align 8
  %8 = call i32 @fstat64(i32 noundef %6, ptr noundef %7) #6
  store i32 %8, ptr %5, align 4
  %9 = load i32, ptr %5, align 4
  %10 = icmp sge i32 %9, 0
  br i1 %10, label %11, label %15

11:                                               ; preds = %2
  br label %12

12:                                               ; preds = %11
  br label %13

13:                                               ; preds = %12
  br label %14

14:                                               ; preds = %13
  br label %15

15:                                               ; preds = %14, %2
  %16 = load i32, ptr %5, align 4
  call void @llvm.lifetime.end.p0(i64 4, ptr %5) #6
  ret i32 %16
}

; Function Attrs: nounwind uwtable
define dso_local i32 @uv_guess_handle(i32 noundef %0) #0 {
  %2 = alloca i32, align 4
  %3 = alloca i32, align 4
  %4 = alloca %struct.sockaddr_storage, align 8
  %5 = alloca %struct.stat, align 8
  %6 = alloca i32, align 4
  %7 = alloca i32, align 4
  %8 = alloca i32, align 4
  %9 = alloca %union.__SOCKADDR_ARG, align 8
  store i32 %0, ptr %3, align 4
  call void @llvm.lifetime.start.p0(i64 128, ptr %4) #6
  call void @llvm.lifetime.start.p0(i64 144, ptr %5) #6
  call void @llvm.lifetime.start.p0(i64 4, ptr %6) #6
  call void @llvm.lifetime.start.p0(i64 4, ptr %7) #6
  %10 = load i32, ptr %3, align 4
  %11 = icmp slt i32 %10, 0
  br i1 %11, label %12, label %13

12:                                               ; preds = %1
  store i32 0, ptr %2, align 4
  store i32 1, ptr %8, align 4
  br label %96

13:                                               ; preds = %1
  %14 = load i32, ptr %3, align 4
  %15 = call i32 @isatty(i32 noundef %14) #6
  %16 = icmp ne i32 %15, 0
  br i1 %16, label %17, label %18

17:                                               ; preds = %13
  store i32 14, ptr %2, align 4
  store i32 1, ptr %8, align 4
  br label %96

18:                                               ; preds = %13
  %19 = load i32, ptr %3, align 4
  %20 = call i32 @uv__fstat(i32 noundef %19, ptr noundef %5)
  %21 = icmp ne i32 %20, 0
  br i1 %21, label %22, label %23

22:                                               ; preds = %18
  store i32 0, ptr %2, align 4
  store i32 1, ptr %8, align 4
  br label %96

23:                                               ; preds = %18
  %24 = getelementptr inbounds nuw %struct.stat, ptr %5, i32 0, i32 3
  %25 = load i32, ptr %24, align 8
  %26 = and i32 %25, 61440
  %27 = icmp eq i32 %26, 32768
  br i1 %27, label %28, label %29

28:                                               ; preds = %23
  store i32 17, ptr %2, align 4
  store i32 1, ptr %8, align 4
  br label %96

29:                                               ; preds = %23
  %30 = getelementptr inbounds nuw %struct.stat, ptr %5, i32 0, i32 3
  %31 = load i32, ptr %30, align 8
  %32 = and i32 %31, 61440
  %33 = icmp eq i32 %32, 8192
  br i1 %33, label %34, label %35

34:                                               ; preds = %29
  store i32 17, ptr %2, align 4
  store i32 1, ptr %8, align 4
  br label %96

35:                                               ; preds = %29
  %36 = getelementptr inbounds nuw %struct.stat, ptr %5, i32 0, i32 3
  %37 = load i32, ptr %36, align 8
  %38 = and i32 %37, 61440
  %39 = icmp eq i32 %38, 4096
  br i1 %39, label %40, label %41

40:                                               ; preds = %35
  store i32 7, ptr %2, align 4
  store i32 1, ptr %8, align 4
  br label %96

41:                                               ; preds = %35
  %42 = getelementptr inbounds nuw %struct.stat, ptr %5, i32 0, i32 3
  %43 = load i32, ptr %42, align 8
  %44 = and i32 %43, 61440
  %45 = icmp eq i32 %44, 49152
  br i1 %45, label %47, label %46

46:                                               ; preds = %41
  store i32 0, ptr %2, align 4
  store i32 1, ptr %8, align 4
  br label %96

47:                                               ; preds = %41
  store i32 128, ptr %6, align 4
  %48 = load i32, ptr %3, align 4
  store ptr %4, ptr %9, align 8
  %49 = getelementptr inbounds nuw %union.__SOCKADDR_ARG, ptr %9, i32 0, i32 0
  %50 = load ptr, ptr %49, align 8
  %51 = call i32 @getsockname(i32 noundef %48, ptr %50, ptr noundef %6) #6
  %52 = icmp ne i32 %51, 0
  br i1 %52, label %53, label %54

53:                                               ; preds = %47
  store i32 0, ptr %2, align 4
  store i32 1, ptr %8, align 4
  br label %96

54:                                               ; preds = %47
  store i32 4, ptr %6, align 4
  %55 = load i32, ptr %3, align 4
  %56 = call i32 @getsockopt(i32 noundef %55, i32 noundef 1, i32 noundef 3, ptr noundef %7, ptr noundef %6) #6
  %57 = icmp ne i32 %56, 0
  br i1 %57, label %58, label %59

58:                                               ; preds = %54
  store i32 0, ptr %2, align 4
  store i32 1, ptr %8, align 4
  br label %96

59:                                               ; preds = %54
  %60 = load i32, ptr %7, align 4
  %61 = icmp eq i32 %60, 2
  br i1 %61, label %62, label %74

62:                                               ; preds = %59
  %63 = getelementptr inbounds nuw %struct.sockaddr_storage, ptr %4, i32 0, i32 0
  %64 = load i16, ptr %63, align 8
  %65 = zext i16 %64 to i32
  %66 = icmp eq i32 %65, 2
  br i1 %66, label %72, label %67

67:                                               ; preds = %62
  %68 = getelementptr inbounds nuw %struct.sockaddr_storage, ptr %4, i32 0, i32 0
  %69 = load i16, ptr %68, align 8
  %70 = zext i16 %69 to i32
  %71 = icmp eq i32 %70, 10
  br i1 %71, label %72, label %73

72:                                               ; preds = %67, %62
  store i32 15, ptr %2, align 4
  store i32 1, ptr %8, align 4
  br label %96

73:                                               ; preds = %67
  br label %74

74:                                               ; preds = %73, %59
  %75 = load i32, ptr %7, align 4
  %76 = icmp eq i32 %75, 1
  br i1 %76, label %77, label %95

77:                                               ; preds = %74
  %78 = getelementptr inbounds nuw %struct.sockaddr_storage, ptr %4, i32 0, i32 0
  %79 = load i16, ptr %78, align 8
  %80 = zext i16 %79 to i32
  %81 = icmp eq i32 %80, 2
  br i1 %81, label %87, label %82

82:                                               ; preds = %77
  %83 = getelementptr inbounds nuw %struct.sockaddr_storage, ptr %4, i32 0, i32 0
  %84 = load i16, ptr %83, align 8
  %85 = zext i16 %84 to i32
  %86 = icmp eq i32 %85, 10
  br i1 %86, label %87, label %88

87:                                               ; preds = %82, %77
  store i32 12, ptr %2, align 4
  store i32 1, ptr %8, align 4
  br label %96

88:                                               ; preds = %82
  %89 = getelementptr inbounds nuw %struct.sockaddr_storage, ptr %4, i32 0, i32 0
  %90 = load i16, ptr %89, align 8
  %91 = zext i16 %90 to i32
  %92 = icmp eq i32 %91, 1
  br i1 %92, label %93, label %94

93:                                               ; preds = %88
  store i32 7, ptr %2, align 4
  store i32 1, ptr %8, align 4
  br label %96

94:                                               ; preds = %88
  br label %95

95:                                               ; preds = %94, %74
  store i32 0, ptr %2, align 4
  store i32 1, ptr %8, align 4
  br label %96

96:                                               ; preds = %95, %93, %87, %72, %58, %53, %46, %40, %34, %28, %22, %17, %12
  call void @llvm.lifetime.end.p0(i64 4, ptr %7) #6
  call void @llvm.lifetime.end.p0(i64 4, ptr %6) #6
  call void @llvm.lifetime.end.p0(i64 144, ptr %5) #6
  call void @llvm.lifetime.end.p0(i64 128, ptr %4) #6
  %97 = load i32, ptr %2, align 4
  ret i32 %97
}